	.text
	.file	"um.cu"
	.file	1 "/usr/bin/../lib/gcc/x86_64-linux-gnu/7.5.0/../../../../include/x86_64-linux-gnu/c++/7.5.0/bits/atomic_word.h"
	.file	2 "/usr/bin/../lib/gcc/x86_64-linux-gnu/7.5.0/../../../../include/c++/7.5.0/bits/ios_base.h"
	.file	3 "/usr/bin/../lib/gcc/x86_64-linux-gnu/7.5.0/../../../../include/c++/7.5.0/iostream"
	.file	4 "/usr/local/cuda-10.2/include/driver_types.h"
	.file	5 "/home/yuweitt/llvm-project/build/lib/clang/10.0.0/include/__clang_cuda_math_forward_declares.h"
	.file	6 "/usr/include/stdlib.h"
	.file	7 "/usr/bin/../lib/gcc/x86_64-linux-gnu/7.5.0/../../../../include/c++/7.5.0/bits/std_abs.h"
	.file	8 "/usr/include/x86_64-linux-gnu/bits/mathcalls.h"
	.file	9 "/usr/bin/../lib/gcc/x86_64-linux-gnu/7.5.0/../../../../include/c++/7.5.0/cmath"
	.file	10 "/usr/include/math.h"
	.file	11 "/usr/bin/../lib/gcc/x86_64-linux-gnu/7.5.0/../../../../include/c++/7.5.0/cstdlib"
	.file	12 "/home/yuweitt/llvm-project/build/lib/clang/10.0.0/include/stddef.h"
	.file	13 "/usr/bin/../lib/gcc/x86_64-linux-gnu/7.5.0/../../../../include/c++/7.5.0/stdlib.h"
	.file	14 "/home/yuweitt/llvm-project/build/lib/clang/10.0.0/include/__clang_cuda_device_functions.h"
	.file	15 "/home/yuweitt/llvm-project/build/lib/clang/10.0.0/include/__clang_cuda_cmath.h"
	.file	16 "/usr/include/x86_64-linux-gnu/bits/types/__mbstate_t.h"
	.file	17 "/usr/include/x86_64-linux-gnu/bits/types/mbstate_t.h"
	.file	18 "/usr/bin/../lib/gcc/x86_64-linux-gnu/7.5.0/../../../../include/c++/7.5.0/cwchar"
	.file	19 "/usr/include/x86_64-linux-gnu/bits/types/wint_t.h"
	.file	20 "/usr/include/wchar.h"
	.file	21 "/usr/include/x86_64-linux-gnu/bits/types/__FILE.h"
	.file	22 "/usr/bin/../lib/gcc/x86_64-linux-gnu/7.5.0/../../../../include/c++/7.5.0/bits/exception_ptr.h"
	.file	23 "/usr/bin/../lib/gcc/x86_64-linux-gnu/7.5.0/../../../../include/x86_64-linux-gnu/c++/7.5.0/bits/c++config.h"
	.file	24 "/usr/bin/../lib/gcc/x86_64-linux-gnu/7.5.0/../../../../include/c++/7.5.0/debug/debug.h"
	.file	25 "/usr/include/x86_64-linux-gnu/bits/types.h"
	.file	26 "/usr/include/x86_64-linux-gnu/bits/stdint-intn.h"
	.file	27 "/usr/bin/../lib/gcc/x86_64-linux-gnu/7.5.0/../../../../include/c++/7.5.0/cstdint"
	.file	28 "/usr/include/stdint.h"
	.file	29 "/usr/include/x86_64-linux-gnu/bits/stdint-uintn.h"
	.file	30 "/usr/bin/../lib/gcc/x86_64-linux-gnu/7.5.0/../../../../include/c++/7.5.0/clocale"
	.file	31 "/usr/include/locale.h"
	.file	32 "/usr/include/ctype.h"
	.file	33 "/usr/bin/../lib/gcc/x86_64-linux-gnu/7.5.0/../../../../include/c++/7.5.0/cctype"
	.file	34 "/usr/bin/../lib/gcc/x86_64-linux-gnu/7.5.0/../../../../include/c++/7.5.0/ext/new_allocator.h"
	.file	35 "/usr/include/x86_64-linux-gnu/bits/types/FILE.h"
	.file	36 "/usr/bin/../lib/gcc/x86_64-linux-gnu/7.5.0/../../../../include/c++/7.5.0/cstdio"
	.file	37 "/usr/include/x86_64-linux-gnu/bits/_G_config.h"
	.file	38 "/usr/include/stdio.h"
	.file	39 "/usr/include/wctype.h"
	.file	40 "/usr/bin/../lib/gcc/x86_64-linux-gnu/7.5.0/../../../../include/c++/7.5.0/cwctype"
	.file	41 "/usr/include/x86_64-linux-gnu/bits/wctype-wchar.h"
	.file	42 "/usr/bin/../lib/gcc/x86_64-linux-gnu/7.5.0/../../../../include/c++/7.5.0/math.h"
	.section	.text.startup,"ax",@progbits
	.p2align	4, 0x90         # -- Begin function __cxx_global_var_init
	.type	__cxx_global_var_init,@function
__cxx_global_var_init:                  # @__cxx_global_var_init
.Lfunc_begin0:
	.loc	3 74 0                  # /usr/bin/../lib/gcc/x86_64-linux-gnu/7.5.0/../../../../include/c++/7.5.0/iostream:74:0
	.cfi_startproc
# %bb.0:
	pushq	%rbp
	.cfi_def_cfa_offset 16
	.cfi_offset %rbp, -16
	movq	%rsp, %rbp
	.cfi_def_cfa_register %rbp
.Ltmp0:
	.loc	3 74 25 prologue_end    # /usr/bin/../lib/gcc/x86_64-linux-gnu/7.5.0/../../../../include/c++/7.5.0/iostream:74:25
	movl	$_ZStL8__ioinit, %edi
	callq	_ZNSt8ios_base4InitC1Ev
	movl	$_ZNSt8ios_base4InitD1Ev, %edi
	movl	$_ZStL8__ioinit, %esi
	movl	$__dso_handle, %edx
	callq	__cxa_atexit
	popq	%rbp
	.cfi_def_cfa %rsp, 8
	retq
.Ltmp1:
.Lfunc_end0:
	.size	__cxx_global_var_init, .Lfunc_end0-__cxx_global_var_init
	.cfi_endproc
                                        # -- End function
	.text
	.globl	_Z14myCudaPrefetchPfi   # -- Begin function _Z14myCudaPrefetchPfi
	.p2align	4, 0x90
	.type	_Z14myCudaPrefetchPfi,@function
_Z14myCudaPrefetchPfi:                  # @_Z14myCudaPrefetchPfi
.Lfunc_begin1:
	.file	43 "/home/yuweitt/cuda/um/um.cu"
	.loc	43 5 0                  # um.cu:5:0
	.cfi_startproc
# %bb.0:
	pushq	%rbp
	.cfi_def_cfa_offset 16
	.cfi_offset %rbp, -16
	movq	%rsp, %rbp
	.cfi_def_cfa_register %rbp
	subq	$16, %rsp
	movq	%rdi, -16(%rbp)
	movl	%esi, -4(%rbp)
.Ltmp2:
	.loc	43 6 24 prologue_end    # um.cu:6:24
	movq	-16(%rbp), %rdi
	.loc	43 6 27 is_stmt 0       # um.cu:6:27
	movslq	-4(%rbp), %rsi
	.loc	43 6 3                  # um.cu:6:3
	xorl	%edx, %edx
	xorl	%ecx, %ecx
	callq	cudaMemPrefetchAsync
	.loc	43 7 1 is_stmt 1        # um.cu:7:1
	addq	$16, %rsp
	popq	%rbp
	.cfi_def_cfa %rsp, 8
	retq
.Ltmp3:
.Lfunc_end1:
	.size	_Z14myCudaPrefetchPfi, .Lfunc_end1-_Z14myCudaPrefetchPfi
	.cfi_endproc
                                        # -- End function
	.globl	_Z5MyaddiPfS_           # -- Begin function _Z5MyaddiPfS_
	.p2align	4, 0x90
	.type	_Z5MyaddiPfS_,@function
_Z5MyaddiPfS_:                          # @_Z5MyaddiPfS_
.Lfunc_begin2:
	.loc	43 14 0                 # um.cu:14:0
	.cfi_startproc
# %bb.0:
	pushq	%rbp
	.cfi_def_cfa_offset 16
	.cfi_offset %rbp, -16
	movq	%rsp, %rbp
	.cfi_def_cfa_register %rbp
	subq	$144, %rsp
	movl	%edi, -4(%rbp)
	movq	%rsi, -104(%rbp)
	movq	%rdx, -96(%rbp)
.Ltmp4:
	.loc	43 14 1 prologue_end    # um.cu:14:1
	leaq	-4(%rbp), %rax
.Ltmp5:
	#DEBUG_VALUE: Myadd:n <- [$rax+0]
	movq	%rax, -128(%rbp)
	leaq	-104(%rbp), %rax
.Ltmp6:
	#DEBUG_VALUE: Myadd:x <- [$rax+0]
	movq	%rax, -120(%rbp)
	leaq	-96(%rbp), %rax
.Ltmp7:
	#DEBUG_VALUE: Myadd:y <- [$rax+0]
	movq	%rax, -112(%rbp)
	leaq	-88(%rbp), %rdi
	leaq	-72(%rbp), %rsi
	leaq	-56(%rbp), %rdx
	leaq	-48(%rbp), %rcx
	callq	__cudaPopCallConfiguration
.Ltmp8:
	.loc	43 0 1 is_stmt 0        # um.cu:0:1
	movabsq	$_Z5MyaddiPfS_, %rdi
	.loc	43 14 1                 # um.cu:14:1
	movq	-56(%rbp), %rax
	movq	-48(%rbp), %r10
	movq	-88(%rbp), %rcx
	movq	%rcx, -40(%rbp)
	movl	-80(%rbp), %ecx
	movl	%ecx, -32(%rbp)
	movq	-40(%rbp), %rsi
	movl	-32(%rbp), %edx
	movq	-72(%rbp), %rcx
	movq	%rcx, -24(%rbp)
	movl	-64(%rbp), %ecx
	movl	%ecx, -16(%rbp)
	movq	-24(%rbp), %rcx
	movl	-16(%rbp), %r8d
	leaq	-128(%rbp), %r9
	movq	%rax, (%rsp)
	movq	%r10, 8(%rsp)
	callq	cudaLaunchKernel
# %bb.1:
	.loc	43 19 1 is_stmt 1       # um.cu:19:1
	addq	$144, %rsp
	popq	%rbp
	.cfi_def_cfa %rsp, 8
	retq
.Ltmp9:
.Lfunc_end2:
	.size	_Z5MyaddiPfS_, .Lfunc_end2-_Z5MyaddiPfS_
	.cfi_endproc
                                        # -- End function
	.section	.rodata.cst4,"aM",@progbits,4
	.p2align	2               # -- Begin function main
.LCPI3_0:
	.long	1077936128              # float 3
.LCPI3_1:
	.long	1073741824              # float 2
.LCPI3_2:
	.long	1065353216              # float 1
	.text
	.globl	main
	.p2align	4, 0x90
	.type	main,@function
main:                                   # @main
.Lfunc_begin3:
	.loc	43 22 0                 # um.cu:22:0
	.cfi_startproc
# %bb.0:
	pushq	%rbp
	.cfi_def_cfa_offset 16
	.cfi_offset %rbp, -16
	movq	%rsp, %rbp
	.cfi_def_cfa_register %rbp
	subq	$128, %rsp
	movl	$0, -116(%rbp)
.Ltmp10:
	.loc	43 23 7 prologue_end    # um.cu:23:7
	movl	$1024, -4(%rbp)         # imm = 0x400
	.loc	43 27 3                 # um.cu:27:3
	leaq	-128(%rbp), %rdi
.Ltmp11:
	#DEBUG_VALUE: main:stream <- [$rdi+0]
	callq	cudaStreamCreate
.Ltmp12:
	.loc	43 30 25                # um.cu:30:25
	movslq	-4(%rbp), %rsi
	.loc	43 30 26 is_stmt 0      # um.cu:30:26
	shlq	$2, %rsi
	.loc	43 30 3                 # um.cu:30:3
	leaq	-40(%rbp), %rdi
	movl	$1, %edx
	callq	_ZL17cudaMallocManagedIfE9cudaErrorPPT_mj
	.loc	43 31 25 is_stmt 1      # um.cu:31:25
	movslq	-4(%rbp), %rsi
	.loc	43 31 26 is_stmt 0      # um.cu:31:26
	shlq	$2, %rsi
	.loc	43 31 3                 # um.cu:31:3
	leaq	-32(%rbp), %rdi
	movl	$1, %edx
	callq	_ZL17cudaMallocManagedIfE9cudaErrorPPT_mj
.Ltmp13:
	.loc	43 38 12 is_stmt 1      # um.cu:38:12
	movl	$0, -8(%rbp)
.LBB3_1:                                # =>This Inner Loop Header: Depth=1
.Ltmp14:
	.loc	43 38 19 is_stmt 0      # um.cu:38:19
	movl	-8(%rbp), %eax
	.loc	43 38 21                # um.cu:38:21
	cmpl	-4(%rbp), %eax
.Ltmp15:
	.loc	43 38 3                 # um.cu:38:3
	jge	.LBB3_4
# %bb.2:                                #   in Loop: Header=BB3_1 Depth=1
	.loc	43 0 3                  # um.cu:0:3
	movss	.LCPI3_1(%rip), %xmm0   # xmm0 = mem[0],zero,zero,zero
	movss	.LCPI3_2(%rip), %xmm1   # xmm1 = mem[0],zero,zero,zero
.Ltmp16:
	.loc	43 39 5 is_stmt 1       # um.cu:39:5
	movq	-40(%rbp), %rax
	movslq	-8(%rbp), %rcx
	.loc	43 39 10 is_stmt 0      # um.cu:39:10
	movss	%xmm1, (%rax,%rcx,4)
	.loc	43 40 5 is_stmt 1       # um.cu:40:5
	movq	-32(%rbp), %rax
	movslq	-8(%rbp), %rcx
	.loc	43 40 10 is_stmt 0      # um.cu:40:10
	movss	%xmm0, (%rax,%rcx,4)
.Ltmp17:
# %bb.3:                                #   in Loop: Header=BB3_1 Depth=1
	.loc	43 38 27 is_stmt 1      # um.cu:38:27
	movl	-8(%rbp), %eax
	addl	$1, %eax
	movl	%eax, -8(%rbp)
	.loc	43 38 3 is_stmt 0       # um.cu:38:3
	jmp	.LBB3_1
.Ltmp18:
.LBB3_4:
	.loc	43 44 7 is_stmt 1       # um.cu:44:7
	movl	$128, -20(%rbp)
	.loc	43 45 20                # um.cu:45:20
	movl	-4(%rbp), %eax
	.loc	43 45 22 is_stmt 0      # um.cu:45:22
	addl	-20(%rbp), %eax
	.loc	43 45 34                # um.cu:45:34
	subl	$1, %eax
	.loc	43 45 39                # um.cu:45:39
	cltd
	idivl	-20(%rbp)
	.loc	43 45 7                 # um.cu:45:7
	movl	%eax, -48(%rbp)
	.loc	43 46 11 is_stmt 1      # um.cu:46:11
	movl	-48(%rbp), %esi
	leaq	-112(%rbp), %rdi
	movl	$1, %edx
	movl	$1, %ecx
	callq	_ZN4dim3C2Ejjj
	.loc	43 46 22 is_stmt 0      # um.cu:46:22
	movl	-20(%rbp), %esi
	leaq	-96(%rbp), %rdi
	movl	$1, %edx
	movl	$1, %ecx
	callq	_ZN4dim3C2Ejjj
	.loc	43 46 8                 # um.cu:46:8
	movq	-112(%rbp), %rax
	movq	%rax, -80(%rbp)
	movl	-104(%rbp), %eax
	movl	%eax, -72(%rbp)
	movq	-80(%rbp), %rdi
	movl	-72(%rbp), %esi
	movq	-96(%rbp), %rax
	movq	%rax, -64(%rbp)
	movl	-88(%rbp), %eax
	movl	%eax, -56(%rbp)
	movq	-64(%rbp), %rdx
	movl	-56(%rbp), %ecx
	xorl	%r8d, %r8d
	xorl	%r9d, %r9d
	callq	__cudaPushCallConfiguration
	cmpl	$0, %eax
	.loc	43 46 3                 # um.cu:46:3
	jne	.LBB3_6
# %bb.5:
	.loc	43 46 35                # um.cu:46:35
	movl	-4(%rbp), %edi
	.loc	43 46 38                # um.cu:46:38
	movq	-40(%rbp), %rsi
	.loc	43 46 41                # um.cu:46:41
	movq	-32(%rbp), %rdx
	.loc	43 46 3                 # um.cu:46:3
	callq	_Z5MyaddiPfS_
.LBB3_6:
	.loc	43 49 3 is_stmt 1       # um.cu:49:3
	callq	cudaDeviceSynchronize
	.loc	43 52 9                 # um.cu:52:9
	xorps	%xmm0, %xmm0
	movss	%xmm0, -16(%rbp)
.Ltmp19:
	.loc	43 53 12                # um.cu:53:12
	movl	$0, -12(%rbp)
.LBB3_7:                                # =>This Inner Loop Header: Depth=1
.Ltmp20:
	.loc	43 53 19 is_stmt 0      # um.cu:53:19
	movl	-12(%rbp), %eax
	.loc	43 53 21                # um.cu:53:21
	cmpl	-4(%rbp), %eax
.Ltmp21:
	.loc	43 53 3                 # um.cu:53:3
	jge	.LBB3_10
# %bb.8:                                #   in Loop: Header=BB3_7 Depth=1
	.loc	43 0 3                  # um.cu:0:3
	movss	.LCPI3_0(%rip), %xmm1   # xmm1 = mem[0],zero,zero,zero
.Ltmp22:
	.loc	43 54 21 is_stmt 1      # um.cu:54:21
	movss	-16(%rbp), %xmm0        # xmm0 = mem[0],zero,zero,zero
	movss	%xmm0, -44(%rbp)        # 4-byte Spill
	.loc	43 54 36 is_stmt 0      # um.cu:54:36
	movq	-32(%rbp), %rax
	movslq	-12(%rbp), %rcx
	movss	(%rax,%rcx,4), %xmm0    # xmm0 = mem[0],zero,zero,zero
	.loc	43 54 40                # um.cu:54:40
	subss	%xmm1, %xmm0
	.loc	43 54 31                # um.cu:54:31
	callq	_ZSt4fabsf
	movaps	%xmm0, %xmm1
	movss	-44(%rbp), %xmm0        # 4-byte Reload
                                        # xmm0 = mem[0],zero,zero,zero
	.loc	43 54 16                # um.cu:54:16
	callq	_ZSt4fmaxff
	.loc	43 54 14                # um.cu:54:14
	movss	%xmm0, -16(%rbp)
# %bb.9:                                #   in Loop: Header=BB3_7 Depth=1
	.loc	43 53 27 is_stmt 1      # um.cu:53:27
	movl	-12(%rbp), %eax
	addl	$1, %eax
	movl	%eax, -12(%rbp)
	.loc	43 53 3 is_stmt 0       # um.cu:53:3
	jmp	.LBB3_7
.Ltmp23:
.LBB3_10:
	.loc	43 55 13 is_stmt 1      # um.cu:55:13
	movabsq	$_ZSt4cout, %rdi
	movabsq	$.L.str, %rsi
	callq	_ZStlsISt11char_traitsIcEERSt13basic_ostreamIcT_ES5_PKc
	.loc	43 55 33 is_stmt 0      # um.cu:55:33
	movss	-16(%rbp), %xmm0        # xmm0 = mem[0],zero,zero,zero
	.loc	43 55 30                # um.cu:55:30
	movq	%rax, %rdi
	callq	_ZNSolsEf
	.loc	43 55 42                # um.cu:55:42
	movq	%rax, %rdi
	movabsq	$_ZSt4endlIcSt11char_traitsIcEERSt13basic_ostreamIT_T0_ES6_, %rsi
	callq	_ZNSolsEPFRSoS_E
	.loc	43 58 12 is_stmt 1      # um.cu:58:12
	movq	-40(%rbp), %rdi
	.loc	43 58 3 is_stmt 0       # um.cu:58:3
	callq	cudaFree
	.loc	43 59 12 is_stmt 1      # um.cu:59:12
	movq	-32(%rbp), %rdi
	.loc	43 59 3 is_stmt 0       # um.cu:59:3
	callq	cudaFree
	.loc	43 61 3 is_stmt 1       # um.cu:61:3
	xorl	%eax, %eax
	addq	$128, %rsp
	popq	%rbp
	.cfi_def_cfa %rsp, 8
	retq
.Ltmp24:
.Lfunc_end3:
	.size	main, .Lfunc_end3-main
	.cfi_endproc
                                        # -- End function
	.p2align	4, 0x90         # -- Begin function _ZL17cudaMallocManagedIfE9cudaErrorPPT_mj
	.type	_ZL17cudaMallocManagedIfE9cudaErrorPPT_mj,@function
_ZL17cudaMallocManagedIfE9cudaErrorPPT_mj: # @_ZL17cudaMallocManagedIfE9cudaErrorPPT_mj
.Lfunc_begin4:
	.file	44 "/usr/local/cuda-10.2/include/cuda_runtime.h"
	.loc	44 505 0                # /usr/local/cuda-10.2/include/cuda_runtime.h:505:0
	.cfi_startproc
# %bb.0:
	pushq	%rbp
	.cfi_def_cfa_offset 16
	.cfi_offset %rbp, -16
	movq	%rsp, %rbp
	.cfi_def_cfa_register %rbp
	subq	$32, %rsp
	movq	%rdi, -24(%rbp)
	movq	%rsi, -16(%rbp)
	movl	%edx, -4(%rbp)
.Ltmp25:
	.loc	44 506 45 prologue_end  # /usr/local/cuda-10.2/include/cuda_runtime.h:506:45
	movq	-24(%rbp), %rdi
	.loc	44 506 53 is_stmt 0     # /usr/local/cuda-10.2/include/cuda_runtime.h:506:53
	movq	-16(%rbp), %rsi
	.loc	44 506 59               # /usr/local/cuda-10.2/include/cuda_runtime.h:506:59
	movl	-4(%rbp), %edx
	.loc	44 506 10               # /usr/local/cuda-10.2/include/cuda_runtime.h:506:10
	callq	cudaMallocManaged
	.loc	44 506 3                # /usr/local/cuda-10.2/include/cuda_runtime.h:506:3
	addq	$32, %rsp
	popq	%rbp
	.cfi_def_cfa %rsp, 8
	retq
.Ltmp26:
.Lfunc_end4:
	.size	_ZL17cudaMallocManagedIfE9cudaErrorPPT_mj, .Lfunc_end4-_ZL17cudaMallocManagedIfE9cudaErrorPPT_mj
	.cfi_endproc
                                        # -- End function
	.section	.text._ZN4dim3C2Ejjj,"axG",@progbits,_ZN4dim3C2Ejjj,comdat
	.weak	_ZN4dim3C2Ejjj          # -- Begin function _ZN4dim3C2Ejjj
	.p2align	4, 0x90
	.type	_ZN4dim3C2Ejjj,@function
_ZN4dim3C2Ejjj:                         # @_ZN4dim3C2Ejjj
.Lfunc_begin5:
	.file	45 "/usr/local/cuda-10.2/include/vector_types.h"
	.loc	45 421 0 is_stmt 1      # /usr/local/cuda-10.2/include/vector_types.h:421:0
	.cfi_startproc
# %bb.0:
	pushq	%rbp
	.cfi_def_cfa_offset 16
	.cfi_offset %rbp, -16
	movq	%rsp, %rbp
	.cfi_def_cfa_register %rbp
	movq	%rdi, -24(%rbp)
	movl	%esi, -12(%rbp)
	movl	%edx, -8(%rbp)
	movl	%ecx, -4(%rbp)
	movq	-24(%rbp), %rax
.Ltmp27:
	.loc	45 421 107 prologue_end # /usr/local/cuda-10.2/include/vector_types.h:421:107
	movl	-12(%rbp), %ecx
	.loc	45 421 105 is_stmt 0    # /usr/local/cuda-10.2/include/vector_types.h:421:105
	movl	%ecx, (%rax)
	.loc	45 421 114              # /usr/local/cuda-10.2/include/vector_types.h:421:114
	movl	-8(%rbp), %ecx
	.loc	45 421 112              # /usr/local/cuda-10.2/include/vector_types.h:421:112
	movl	%ecx, 4(%rax)
	.loc	45 421 121              # /usr/local/cuda-10.2/include/vector_types.h:421:121
	movl	-4(%rbp), %ecx
	.loc	45 421 119              # /usr/local/cuda-10.2/include/vector_types.h:421:119
	movl	%ecx, 8(%rax)
	.loc	45 421 126              # /usr/local/cuda-10.2/include/vector_types.h:421:126
	popq	%rbp
	.cfi_def_cfa %rsp, 8
	retq
.Ltmp28:
.Lfunc_end5:
	.size	_ZN4dim3C2Ejjj, .Lfunc_end5-_ZN4dim3C2Ejjj
	.cfi_endproc
                                        # -- End function
	.section	.text._ZSt4fmaxff,"axG",@progbits,_ZSt4fmaxff,comdat
	.weak	_ZSt4fmaxff             # -- Begin function _ZSt4fmaxff
	.p2align	4, 0x90
	.type	_ZSt4fmaxff,@function
_ZSt4fmaxff:                            # @_ZSt4fmaxff
.Lfunc_begin6:
	.loc	9 1434 0 is_stmt 1      # /usr/bin/../lib/gcc/x86_64-linux-gnu/7.5.0/../../../../include/c++/7.5.0/cmath:1434:0
	.cfi_startproc
# %bb.0:
	pushq	%rbp
	.cfi_def_cfa_offset 16
	.cfi_offset %rbp, -16
	movq	%rsp, %rbp
	.cfi_def_cfa_register %rbp
	movss	%xmm0, -8(%rbp)
	movss	%xmm1, -4(%rbp)
.Ltmp29:
	.loc	9 1434 28 prologue_end  # /usr/bin/../lib/gcc/x86_64-linux-gnu/7.5.0/../../../../include/c++/7.5.0/cmath:1434:28
	movss	-8(%rbp), %xmm1         # xmm1 = mem[0],zero,zero,zero
	.loc	9 1434 33 is_stmt 0     # /usr/bin/../lib/gcc/x86_64-linux-gnu/7.5.0/../../../../include/c++/7.5.0/cmath:1434:33
	movss	-4(%rbp), %xmm2         # xmm2 = mem[0],zero,zero,zero
	.loc	9 1434 12               # /usr/bin/../lib/gcc/x86_64-linux-gnu/7.5.0/../../../../include/c++/7.5.0/cmath:1434:12
	movaps	%xmm1, %xmm0
	cmpunordss	%xmm0, %xmm0
	movaps	%xmm0, %xmm3
	pand	%xmm2, %xmm3
	maxss	%xmm1, %xmm2
	pandn	%xmm2, %xmm0
	por	%xmm3, %xmm0
	.loc	9 1434 5                # /usr/bin/../lib/gcc/x86_64-linux-gnu/7.5.0/../../../../include/c++/7.5.0/cmath:1434:5
	popq	%rbp
	.cfi_def_cfa %rsp, 8
	retq
.Ltmp30:
.Lfunc_end6:
	.size	_ZSt4fmaxff, .Lfunc_end6-_ZSt4fmaxff
	.cfi_endproc
                                        # -- End function
	.section	.rodata.cst16,"aM",@progbits,16
	.p2align	4               # -- Begin function _ZSt4fabsf
.LCPI7_0:
	.long	2147483647              # float NaN
	.long	2147483647              # float NaN
	.long	2147483647              # float NaN
	.long	2147483647              # float NaN
	.section	.text._ZSt4fabsf,"axG",@progbits,_ZSt4fabsf,comdat
	.weak	_ZSt4fabsf
	.p2align	4, 0x90
	.type	_ZSt4fabsf,@function
_ZSt4fabsf:                             # @_ZSt4fabsf
.Lfunc_begin7:
	.loc	9 242 0 is_stmt 1       # /usr/bin/../lib/gcc/x86_64-linux-gnu/7.5.0/../../../../include/c++/7.5.0/cmath:242:0
	.cfi_startproc
# %bb.0:
	pushq	%rbp
	.cfi_def_cfa_offset 16
	.cfi_offset %rbp, -16
	movq	%rsp, %rbp
	.cfi_def_cfa_register %rbp
	movss	%xmm0, -4(%rbp)
.Ltmp31:
	.loc	9 242 28 prologue_end   # /usr/bin/../lib/gcc/x86_64-linux-gnu/7.5.0/../../../../include/c++/7.5.0/cmath:242:28
	movss	-4(%rbp), %xmm0         # xmm0 = mem[0],zero,zero,zero
	.loc	9 242 12 is_stmt 0      # /usr/bin/../lib/gcc/x86_64-linux-gnu/7.5.0/../../../../include/c++/7.5.0/cmath:242:12
	movaps	.LCPI7_0(%rip), %xmm1   # xmm1 = [NaN,NaN,NaN,NaN]
	pand	%xmm1, %xmm0
	.loc	9 242 5                 # /usr/bin/../lib/gcc/x86_64-linux-gnu/7.5.0/../../../../include/c++/7.5.0/cmath:242:5
	popq	%rbp
	.cfi_def_cfa %rsp, 8
	retq
.Ltmp32:
.Lfunc_end7:
	.size	_ZSt4fabsf, .Lfunc_end7-_ZSt4fabsf
	.cfi_endproc
                                        # -- End function
	.section	.text.startup,"ax",@progbits
	.p2align	4, 0x90         # -- Begin function _GLOBAL__sub_I_um.cu
	.type	_GLOBAL__sub_I_um.cu,@function
_GLOBAL__sub_I_um.cu:                   # @_GLOBAL__sub_I_um.cu
.Lfunc_begin8:
	.loc	43 0 0 is_stmt 1        # um.cu:0:0
	.cfi_startproc
# %bb.0:
	pushq	%rbp
	.cfi_def_cfa_offset 16
	.cfi_offset %rbp, -16
	movq	%rsp, %rbp
	.cfi_def_cfa_register %rbp
.Ltmp33:
	callq	__cxx_global_var_init
	popq	%rbp
	.cfi_def_cfa %rsp, 8
	retq
.Ltmp34:
.Lfunc_end8:
	.size	_GLOBAL__sub_I_um.cu, .Lfunc_end8-_GLOBAL__sub_I_um.cu
	.cfi_endproc
                                        # -- End function
	.text
	.p2align	4, 0x90         # -- Begin function __cuda_register_globals
	.type	__cuda_register_globals,@function
__cuda_register_globals:                # @__cuda_register_globals
.Lfunc_begin9:
	.cfi_startproc
# %bb.0:
	pushq	%rax
	.cfi_def_cfa_offset 16
	movl	$_Z5MyaddiPfS_, %esi
	movl	$.L__unnamed_1, %edx
	movl	$.L__unnamed_1, %ecx
	movl	$-1, %r8d
	movl	$0, %r9d
	pushq	$0
	.cfi_adjust_cfa_offset 8
	pushq	$0
	.cfi_adjust_cfa_offset 8
	pushq	$0
	.cfi_adjust_cfa_offset 8
	pushq	$0
	.cfi_adjust_cfa_offset 8
	callq	__cudaRegisterFunction
	addq	$32, %rsp
	.cfi_adjust_cfa_offset -32
	popq	%rax
	.cfi_def_cfa_offset 8
	retq
.Lfunc_end9:
	.size	__cuda_register_globals, .Lfunc_end9-__cuda_register_globals
	.cfi_endproc
                                        # -- End function
	.p2align	4, 0x90         # -- Begin function __cuda_module_ctor
	.type	__cuda_module_ctor,@function
__cuda_module_ctor:                     # @__cuda_module_ctor
.Lfunc_begin10:
	.cfi_startproc
# %bb.0:
	pushq	%rbx
	.cfi_def_cfa_offset 16
	.cfi_offset %rbx, -16
	movl	$__cuda_fatbin_wrapper, %edi
	callq	__cudaRegisterFatBinary
	movq	%rax, %rbx
	movq	%rax, __cuda_gpubin_handle(%rip)
	movq	%rax, %rdi
	callq	__cuda_register_globals
	movq	%rbx, %rdi
	callq	__cudaRegisterFatBinaryEnd
	movl	$__cuda_module_dtor, %edi
	callq	atexit
	popq	%rbx
	.cfi_def_cfa_offset 8
	retq
.Lfunc_end10:
	.size	__cuda_module_ctor, .Lfunc_end10-__cuda_module_ctor
	.cfi_endproc
                                        # -- End function
	.p2align	4, 0x90         # -- Begin function __cuda_module_dtor
	.type	__cuda_module_dtor,@function
__cuda_module_dtor:                     # @__cuda_module_dtor
.Lfunc_begin11:
	.cfi_startproc
# %bb.0:
	pushq	%rax
	.cfi_def_cfa_offset 16
	movq	__cuda_gpubin_handle(%rip), %rdi
	callq	__cudaUnregisterFatBinary
	popq	%rax
	.cfi_def_cfa_offset 8
	retq
.Lfunc_end11:
	.size	__cuda_module_dtor, .Lfunc_end11-__cuda_module_dtor
	.cfi_endproc
                                        # -- End function
	.type	_ZStL8__ioinit,@object  # @_ZStL8__ioinit
	.local	_ZStL8__ioinit
	.comm	_ZStL8__ioinit,1,1
	.hidden	__dso_handle
	.type	.L.str,@object          # @.str
	.section	.rodata.str1.1,"aMS",@progbits,1
.L.str:
	.asciz	"Max error: "
	.size	.L.str, 12

	.type	.L__unnamed_1,@object   # @0
.L__unnamed_1:
	.asciz	"_Z5MyaddiPfS_"
	.size	.L__unnamed_1, 14

	.type	.L__unnamed_2,@object   # @1
	.section	.nv_fatbin,"a",@progbits
	.p2align	3
.L__unnamed_2:
